; Function Attrs: mustprogress nounwind uwtable
define hidden noundef ptr @_ZNK22CountLeadingZerosINode5ValueEP8PhaseGVN(ptr nocapture noundef nonnull readonly align 8 dereferenceable(52) %0, ptr nocapture noundef readonly %1) unnamed_addr #0 align 2 {
  %3 = getelementptr inbounds i8, ptr %0, i64 8
  %4 = load ptr, ptr %3, align 8
  %5 = getelementptr inbounds i8, ptr %4, i64 8
  %6 = load ptr, ptr %5, align 8
  %7 = getelementptr inbounds i8, ptr %1, i64 40
  %8 = load ptr, ptr %7, align 8
  %9 = getelementptr inbounds i8, ptr %6, i64 40
  %10 = load i32, ptr %9, align 8
  %11 = getelementptr inbounds i8, ptr %8, i64 16
  %12 = load ptr, ptr %11, align 8
  %13 = zext i32 %10 to i64
  %14 = getelementptr inbounds ptr, ptr %12, i64 %13
  %15 = load ptr, ptr %14, align 8
  %16 = load ptr, ptr @_ZN4Type3TOPE, align 8
  %17 = icmp eq ptr %15, %16
  br i1 %17, label %48, label %18

18:                                               ; preds = %2
  %19 = getelementptr inbounds i8, ptr %15, i64 16
  %20 = load i32, ptr %19, align 8
  %21 = icmp ne i32 %20, 3
  %.not34 = icmp eq ptr %15, null
  %.not = or i1 %.not34, %21
  br i1 %.not, label %46, label %22

22:                                               ; preds = %18
  %23 = getelementptr inbounds i8, ptr %15, i64 24
  %24 = load i32, ptr %23, align 8
  %25 = getelementptr inbounds i8, ptr %15, i64 28
  %26 = load i32, ptr %25, align 4
  %27 = icmp eq i32 %24, %26
  br i1 %27, label %28, label %46

28:                                               ; preds = %22
  %29 = icmp eq i32 %24, 0
  br i1 %29, label %30, label %32

30:                                               ; preds = %28
  %31 = tail call noundef ptr @_ZN7TypeInt4makeEi(i32 noundef 32) #2
  br label %48

32:                                               ; preds = %28
  %33 = icmp ult i32 %24, 65536
  %34 = shl nuw i32 %24, 16
  %spec.select = select i1 %33, i32 17, i32 1
  %spec.select33 = select i1 %33, i32 %34, i32 %24
  %35 = icmp ult i32 %spec.select33, 16777216
  %36 = or disjoint i32 %spec.select, 8
  %37 = shl nuw i32 %spec.select33, 8
  %.125 = select i1 %35, i32 %36, i32 %spec.select
  %.1 = select i1 %35, i32 %37, i32 %spec.select33
  %38 = icmp ult i32 %.1, 268435456
  %39 = or disjoint i32 %.125, 4
  %40 = shl nuw i32 %.1, 4
  %.226 = select i1 %38, i32 %39, i32 %.125
  %.2 = select i1 %38, i32 %40, i32 %.1
  %41 = icmp ult i32 %.2, 1073741824
  %42 = or disjoint i32 %.226, 2
  %43 = shl nuw i32 %.2, 2
  %.327 = select i1 %41, i32 %42, i32 %.226
  %.3 = select i1 %41, i32 %43, i32 %.2
  %.neg = ashr i32 %.3, 31
  %44 = add nsw i32 %.neg, %.327
  %45 = tail call noundef ptr @_ZN7TypeInt4makeEi(i32 noundef %44) #2
  br label %48

46:                                               ; preds = %22, %18
  %47 = load ptr, ptr @_ZN7TypeInt3INTE, align 8
  br label %48

48:                                               ; preds = %2, %46, %32, %30
  %.028 = phi ptr [ %31, %30 ], [ %45, %32 ], [ %47, %46 ], [ %16, %2 ]
  ret ptr %.028
}